target datalayout = "e-m:e-p270:32:32-p271:32:32-p272:64:64-i64:64-i128:128-f80:128-n8:16:32:64-S128"
target triple = "x86_64-pc-linux-gnu"

%struct.darktable_t = type { %struct.dt_codepath_t, i32, i32, ptr, ptr, ptr, ptr, ptr, ptr, ptr, ptr, ptr, ptr, ptr, ptr, ptr, ptr, ptr, ptr, ptr, ptr, ptr, ptr, ptr, ptr, ptr, ptr, ptr, ptr, ptr, [64 x %struct.dt_pthread_mutex_t], %struct.dt_pthread_mutex_t, %struct.dt_pthread_mutex_t, %struct.dt_pthread_mutex_t, %struct.dt_pthread_mutex_t, %struct.dt_pthread_mutex_t, ptr, ptr, ptr, ptr, ptr, ptr, ptr, ptr, ptr, ptr, ptr, ptr, ptr, %struct.dt_lua_state_t, ptr, double, ptr, i32, [47 x i32], i32, i32, ptr, ptr, %struct.dt_sys_resources_t, %struct.dt_backthumb_t, %struct.dt_gimp_t }
%struct.dt_codepath_t = type { i8, [3 x i8] }
%struct.dt_pthread_mutex_t = type { %union.pthread_mutex_t }
%union.pthread_mutex_t = type { %struct.__pthread_mutex_s }
%struct.__pthread_mutex_s = type { i32, i32, i32, i32, i32, i16, i16, %struct.__pthread_internal_list }
%struct.__pthread_internal_list = type { ptr, ptr }
%struct.dt_lua_state_t = type { i32 }
%struct.dt_sys_resources_t = type { i64, i64, ptr, ptr, i32 }
%struct.dt_backthumb_t = type { double, double, i32, i32, i32, i32 }
%struct.dt_gimp_t = type { i32, ptr, ptr, i32, i32 }

@darktable = external global %struct.darktable_t, align 8
@.str = private unnamed_addr constant [41 x i8] c"[sql] %s:%d, function %s(): prepare \22%s\22\00", align 1
@.str.1 = private unnamed_addr constant [115 x i8] c"generated/home/dtcxzyw/WorkSpace/Projects/compilers/llvm-opt-benchmark/bench/darktable/darktable/src/common/tags.c\00", align 1
@stderr = external global ptr, align 8
@.str.3 = private unnamed_addr constant [53 x i8] c"sqlite3 error: %s:%d, function %s(), query \22%s\22: %s\0A\00", align 1
@.str.4 = private unnamed_addr constant [41 x i8] c"sqlite3 error: %s:%d, function %s(): %s\0A\00", align 1
@__FUNCTION__.dt_tag_images_count = private unnamed_addr constant [20 x i8] c"dt_tag_images_count\00", align 1
@.str.53 = private unnamed_addr constant [79 x i8] c"SELECT COUNT(DISTINCT imgid) AS imgnb FROM main.tagged_images WHERE tagid = ?1\00", align 1

; Function Attrs: nounwind uwtable
define i32 @dt_tag_images_count(i32 noundef %0) #0 {
  %2 = alloca i32, align 4
  %3 = alloca ptr, align 8
  %4 = alloca i32, align 4
  %5 = alloca i32, align 4
  %6 = alloca i32, align 4
  store i32 %0, ptr %2, align 4, !tbaa !52
  call void @llvm.lifetime.start.p0(i64 8, ptr %3) #8
  br label %7

7:                                                ; preds = %1
  br label %8

8:                                                ; preds = %7
  %9 = load i32, ptr getelementptr inbounds nuw (%struct.darktable_t, ptr @darktable, i32 0, i32 2), align 8, !tbaa !14
  %10 = and i32 256, %9
  %11 = icmp ne i32 %10, 0
  br i1 %11, label %12, label %18

12:                                               ; preds = %8
  %13 = load i32, ptr getelementptr inbounds nuw (%struct.darktable_t, ptr @darktable, i32 0, i32 2), align 8, !tbaa !14
  %14 = xor i32 %13, -1
  %15 = and i32 0, %14
  %16 = icmp ne i32 %15, 0
  br i1 %16, label %18, label %17

17:                                               ; preds = %12
  call void (ptr, ...) @dt_print_ext(ptr noundef @.str, ptr noundef @.str.1, i32 noundef 1446, ptr noundef @__FUNCTION__.dt_tag_images_count, ptr noundef @.str.53)
  br label %18

18:                                               ; preds = %17, %12, %8
  br label %19

19:                                               ; preds = %18
  br label %20

20:                                               ; preds = %19
  call void @llvm.lifetime.start.p0(i64 4, ptr %4) #8
  %21 = load ptr, ptr getelementptr inbounds nuw (%struct.darktable_t, ptr @darktable, i32 0, i32 18), align 8, !tbaa !51
  %22 = call ptr @dt_database_get(ptr noundef %21)
  %23 = call i32 @sqlite3_prepare_v2(ptr noundef %22, ptr noundef @.str.53, i32 noundef -1, ptr noundef %3, ptr noundef null)
  store i32 %23, ptr %4, align 4, !tbaa !52
  %24 = load i32, ptr %4, align 4, !tbaa !52
  %25 = icmp ne i32 %24, 0
  br i1 %25, label %26, label %32

26:                                               ; preds = %20
  %27 = load ptr, ptr @stderr, align 8, !tbaa !53
  %28 = load ptr, ptr getelementptr inbounds nuw (%struct.darktable_t, ptr @darktable, i32 0, i32 18), align 8, !tbaa !51
  %29 = call ptr @dt_database_get(ptr noundef %28)
  %30 = call ptr @sqlite3_errmsg(ptr noundef %29)
  %31 = call i32 (ptr, ptr, ...) @fprintf(ptr noundef %27, ptr noundef @.str.3, ptr noundef @.str.1, i32 noundef 1446, ptr noundef @__FUNCTION__.dt_tag_images_count, ptr noundef @.str.53, ptr noundef %30) #8
  br label %32

32:                                               ; preds = %26, %20
  call void @llvm.lifetime.end.p0(i64 4, ptr %4) #8
  br label %33

33:                                               ; preds = %32
  br label %34

34:                                               ; preds = %33
  call void @llvm.lifetime.start.p0(i64 4, ptr %5) #8
  %35 = load ptr, ptr %3, align 8, !tbaa !55
  %36 = load i32, ptr %2, align 4, !tbaa !52
  %37 = call i32 @sqlite3_bind_int(ptr noundef %35, i32 noundef 1, i32 noundef %36)
  store i32 %37, ptr %5, align 4, !tbaa !52
  %38 = load i32, ptr %5, align 4, !tbaa !52
  %39 = icmp ne i32 %38, 0
  br i1 %39, label %40, label %46

40:                                               ; preds = %34
  %41 = load ptr, ptr @stderr, align 8, !tbaa !53
  %42 = load ptr, ptr getelementptr inbounds nuw (%struct.darktable_t, ptr @darktable, i32 0, i32 18), align 8, !tbaa !51
  %43 = call ptr @dt_database_get(ptr noundef %42)
  %44 = call ptr @sqlite3_errmsg(ptr noundef %43)
  %45 = call i32 (ptr, ptr, ...) @fprintf(ptr noundef %41, ptr noundef @.str.4, ptr noundef @.str.1, i32 noundef 1448, ptr noundef @__FUNCTION__.dt_tag_images_count, ptr noundef %44) #8
  br label %46

46:                                               ; preds = %40, %34
  call void @llvm.lifetime.end.p0(i64 4, ptr %5) #8
  %47 = load ptr, ptr %3, align 8, !tbaa !55
  %48 = call i32 @sqlite3_step(ptr noundef %47)
  call void @llvm.lifetime.start.p0(i64 4, ptr %6) #8
  %49 = load ptr, ptr %3, align 8, !tbaa !55
  %50 = call i32 @sqlite3_column_int(ptr noundef %49, i32 noundef 0)
  store i32 %50, ptr %6, align 4, !tbaa !52
  %51 = load ptr, ptr %3, align 8, !tbaa !55
  %52 = call i32 @sqlite3_finalize(ptr noundef %51)
  %53 = load i32, ptr %6, align 4, !tbaa !52
  call void @llvm.lifetime.end.p0(i64 4, ptr %6) #8
  call void @llvm.lifetime.end.p0(i64 8, ptr %3) #8
  ret i32 %53
}